target datalayout = "e-m:e-p270:32:32-p271:32:32-p272:64:64-i64:64-i128:128-f80:128-n8:16:32:64-S128"
target triple = "x86_64-pc-linux-gnu"

%struct.ossl_cmp_ctx_st = type { ptr, ptr, ptr, i32, ptr, ptr, ptr, ptr, ptr, i32, ptr, ptr, i32, i32, i32, i32, i64, ptr, ptr, i32, i32, ptr, ptr, ptr, ptr, ptr, i32, i32, i32, ptr, ptr, ptr, ptr, ptr, i64, ptr, i32, i32, ptr, ptr, ptr, ptr, ptr, ptr, ptr, ptr, i32, i32, ptr, ptr, i32, ptr, ptr, i32, ptr, ptr, i32, i32, ptr, ptr, i32, i32, ptr, ptr, i32, ptr, i32, ptr, i32, ptr, ptr, ptr, ptr, ptr, ptr }
%struct.ossl_cmp_msg_st = type { ptr, ptr, ptr, ptr, ptr, ptr }

@.str = private unnamed_addr constant [32 x i8] c"../openssl/crypto/cmp/cmp_vfy.c\00", align 1
@.str.2 = private unnamed_addr constant [3 x i8] c"%s\00", align 1
@.str.4 = private unnamed_addr constant [5 x i8] c"INFO\00", align 1
@.str.7 = private unnamed_addr constant [5 x i8] c"WARN\00", align 1
@__func__.check_msg_all_certs = private unnamed_addr constant [20 x i8] c"check_msg_all_certs\00", align 1
@.str.46 = private unnamed_addr constant [61 x i8] c"normal mode failed; trying now 3GPP mode trusting extraCerts\00", align 1
@.str.47 = private unnamed_addr constant [43 x i8] c"trying first normal mode using trust store\00", align 1
@.str.48 = private unnamed_addr constant [11 x i8] c"extraCerts\00", align 1
@.str.49 = private unnamed_addr constant [16 x i8] c"untrusted certs\00", align 1
@.str.50 = private unnamed_addr constant [26 x i8] c"no self-issued extraCerts\00", align 1
@.str.51 = private unnamed_addr constant [17 x i8] c"no trusted store\00", align 1
@.str.52 = private unnamed_addr constant [23 x i8] c"self-issued extraCerts\00", align 1
@.str.53 = private unnamed_addr constant [23 x i8] c"certs in trusted store\00", align 1

; Function Attrs: nounwind uwtable
define internal i32 @check_msg_all_certs(ptr noundef %0, ptr noundef %1, i32 noundef %2) #0 {
  %4 = alloca i32, align 4
  %5 = alloca ptr, align 8
  %6 = alloca ptr, align 8
  %7 = alloca i32, align 4
  %8 = alloca i32, align 4
  %9 = alloca i32, align 4
  %10 = alloca ptr, align 8
  store ptr %0, ptr %5, align 8, !tbaa !3
  store ptr %1, ptr %6, align 8, !tbaa !36
  store i32 %2, ptr %7, align 4, !tbaa !12
  call void @llvm.lifetime.start.p0(i64 4, ptr %8) #5
  store i32 0, ptr %8, align 4, !tbaa !12
  %11 = load ptr, ptr %5, align 8, !tbaa !3
  %12 = getelementptr inbounds nuw %struct.ossl_cmp_ctx_st, ptr %11, i32 0, i32 27
  %13 = load i32, ptr %12, align 4, !tbaa !94
  %14 = icmp ne i32 %13, 0
  br i1 %14, label %15, label %25

15:                                               ; preds = %3
  %16 = load ptr, ptr %6, align 8, !tbaa !36
  %17 = call i32 @OSSL_CMP_MSG_get_bodytype(ptr noundef %16)
  %18 = icmp eq i32 %17, 1
  br i1 %18, label %19, label %25

19:                                               ; preds = %15
  %20 = load ptr, ptr %5, align 8, !tbaa !3
  %21 = load i32, ptr %7, align 4, !tbaa !12
  %22 = icmp ne i32 %21, 0
  %23 = select i1 %22, ptr @.str.46, ptr @.str.47
  %24 = call i32 (i32, ptr, ptr, ptr, i32, ptr, ptr, ...) @ossl_cmp_print_log(i32 noundef 6, ptr noundef %20, ptr noundef @__func__.check_msg_all_certs, ptr noundef @.str, i32 noundef 431, ptr noundef @.str.4, ptr noundef @.str.2, ptr noundef %23)
  br label %30

25:                                               ; preds = %15, %3
  %26 = load i32, ptr %7, align 4, !tbaa !12
  %27 = icmp ne i32 %26, 0
  br i1 %27, label %28, label %29

28:                                               ; preds = %25
  store i32 0, ptr %4, align 4
  store i32 1, ptr %9, align 4
  br label %86

29:                                               ; preds = %25
  br label %30

30:                                               ; preds = %29, %19
  %31 = load ptr, ptr %5, align 8, !tbaa !3
  %32 = load ptr, ptr %6, align 8, !tbaa !36
  %33 = getelementptr inbounds nuw %struct.ossl_cmp_msg_st, ptr %32, i32 0, i32 3
  %34 = load ptr, ptr %33, align 8, !tbaa !80
  %35 = load ptr, ptr %6, align 8, !tbaa !36
  %36 = load i32, ptr %7, align 4, !tbaa !12
  %37 = call i32 @check_msg_with_certs(ptr noundef %31, ptr noundef %34, ptr noundef @.str.48, ptr noundef null, ptr noundef null, ptr noundef %35, i32 noundef %36)
  %38 = icmp ne i32 %37, 0
  br i1 %38, label %39, label %40

39:                                               ; preds = %30
  store i32 1, ptr %4, align 4
  store i32 1, ptr %9, align 4
  br label %86

40:                                               ; preds = %30
  %41 = load ptr, ptr %5, align 8, !tbaa !3
  %42 = load ptr, ptr %5, align 8, !tbaa !3
  %43 = getelementptr inbounds nuw %struct.ossl_cmp_ctx_st, ptr %42, i32 0, i32 25
  %44 = load ptr, ptr %43, align 8, !tbaa !34
  %45 = load ptr, ptr %6, align 8, !tbaa !36
  %46 = getelementptr inbounds nuw %struct.ossl_cmp_msg_st, ptr %45, i32 0, i32 3
  %47 = load ptr, ptr %46, align 8, !tbaa !80
  %48 = load ptr, ptr %6, align 8, !tbaa !36
  %49 = load i32, ptr %7, align 4, !tbaa !12
  %50 = call i32 @check_msg_with_certs(ptr noundef %41, ptr noundef %44, ptr noundef @.str.49, ptr noundef %47, ptr noundef null, ptr noundef %48, i32 noundef %49)
  %51 = icmp ne i32 %50, 0
  br i1 %51, label %52, label %53

52:                                               ; preds = %40
  store i32 1, ptr %4, align 4
  store i32 1, ptr %9, align 4
  br label %86

53:                                               ; preds = %40
  %54 = load ptr, ptr %5, align 8, !tbaa !3
  %55 = getelementptr inbounds nuw %struct.ossl_cmp_ctx_st, ptr %54, i32 0, i32 24
  %56 = load ptr, ptr %55, align 8, !tbaa !51
  %57 = icmp eq ptr %56, null
  br i1 %57, label %58, label %64

58:                                               ; preds = %53
  %59 = load ptr, ptr %5, align 8, !tbaa !3
  %60 = load i32, ptr %7, align 4, !tbaa !12
  %61 = icmp ne i32 %60, 0
  %62 = select i1 %61, ptr @.str.50, ptr @.str.51
  %63 = call i32 (i32, ptr, ptr, ptr, i32, ptr, ptr, ...) @ossl_cmp_print_log(i32 noundef 4, ptr noundef %59, ptr noundef @__func__.check_msg_all_certs, ptr noundef @.str, i32 noundef 444, ptr noundef @.str.7, ptr noundef @.str.2, ptr noundef %62)
  br label %84

64:                                               ; preds = %53
  call void @llvm.lifetime.start.p0(i64 8, ptr %10) #5
  %65 = load ptr, ptr %5, align 8, !tbaa !3
  %66 = getelementptr inbounds nuw %struct.ossl_cmp_ctx_st, ptr %65, i32 0, i32 24
  %67 = load ptr, ptr %66, align 8, !tbaa !51
  %68 = call ptr @X509_STORE_get1_all_certs(ptr noundef %67)
  store ptr %68, ptr %10, align 8, !tbaa !56
  %69 = load ptr, ptr %5, align 8, !tbaa !3
  %70 = load ptr, ptr %10, align 8, !tbaa !56
  %71 = load i32, ptr %7, align 4, !tbaa !12
  %72 = icmp ne i32 %71, 0
  %73 = select i1 %72, ptr @.str.52, ptr @.str.53
  %74 = load ptr, ptr %6, align 8, !tbaa !36
  %75 = getelementptr inbounds nuw %struct.ossl_cmp_msg_st, ptr %74, i32 0, i32 3
  %76 = load ptr, ptr %75, align 8, !tbaa !80
  %77 = load ptr, ptr %5, align 8, !tbaa !3
  %78 = getelementptr inbounds nuw %struct.ossl_cmp_ctx_st, ptr %77, i32 0, i32 25
  %79 = load ptr, ptr %78, align 8, !tbaa !34
  %80 = load ptr, ptr %6, align 8, !tbaa !36
  %81 = load i32, ptr %7, align 4, !tbaa !12
  %82 = call i32 @check_msg_with_certs(ptr noundef %69, ptr noundef %70, ptr noundef %73, ptr noundef %76, ptr noundef %79, ptr noundef %80, i32 noundef %81)
  store i32 %82, ptr %8, align 4, !tbaa !12
  %83 = load ptr, ptr %10, align 8, !tbaa !56
  call void @OSSL_STACK_OF_X509_free(ptr noundef %83)
  call void @llvm.lifetime.end.p0(i64 8, ptr %10) #5
  br label %84

84:                                               ; preds = %64, %58
  %85 = load i32, ptr %8, align 4, !tbaa !12
  store i32 %85, ptr %4, align 4
  store i32 1, ptr %9, align 4
  br label %86

86:                                               ; preds = %84, %52, %39, %28
  call void @llvm.lifetime.end.p0(i64 4, ptr %8) #5
  %87 = load i32, ptr %4, align 4
  ret i32 %87
}