; Function Attrs: nounwind uwtable
define internal fastcc i32 @check_msg_all_certs(ptr noundef nonnull %0, ptr noundef nonnull %1, i32 noundef range(i32 0, 2) %2) unnamed_addr #0 {
  %4 = getelementptr inbounds nuw i8, ptr %0, i64 188
  %5 = load i32, ptr %4, align 4, !tbaa !74
  %.not = icmp eq i32 %5, 0
  br i1 %.not, label %11, label %6

6:                                                ; preds = %3
  %7 = tail call i32 @OSSL_CMP_MSG_get_bodytype(ptr noundef nonnull %1) #3
  %8 = icmp eq i32 %7, 1
  br i1 %8, label %.split, label %11

.split:                                           ; preds = %6
  %.not31 = icmp eq i32 %2, 0
  %9 = select i1 %.not31, ptr @.str.47, ptr @.str.46
  %10 = tail call i32 (i32, ptr, ptr, ptr, i32, ptr, ptr, ...) @ossl_cmp_print_log(i32 noundef 6, ptr noundef nonnull %0, ptr noundef nonnull @__func__.check_msg_all_certs, ptr noundef nonnull @.str, i32 noundef 431, ptr noundef nonnull @.str.4, ptr noundef nonnull @.str.2, ptr noundef nonnull %9) #3
  br label %.split28

11:                                               ; preds = %6, %3
  %.not30 = icmp eq i32 %2, 0
  br i1 %.not30, label %.split28, label %33

.split28:                                         ; preds = %11, %.split
  %.sink36 = phi i32 [ %2, %.split ], [ 0, %11 ]
  %12 = getelementptr inbounds nuw i8, ptr %1, i64 24
  %13 = load ptr, ptr %12, align 8, !tbaa !61
  %14 = tail call fastcc i32 @check_msg_with_certs(ptr noundef %0, ptr noundef %13, ptr noundef nonnull @.str.48, ptr noundef null, ptr noundef null, ptr noundef %1, i32 noundef %.sink36)
  %.not32 = icmp eq i32 %14, 0
  br i1 %.not32, label %15, label %33

15:                                               ; preds = %.split28
  %16 = getelementptr inbounds nuw i8, ptr %0, i64 176
  %17 = load ptr, ptr %16, align 8, !tbaa !27
  %18 = load ptr, ptr %12, align 8, !tbaa !61
  %19 = tail call fastcc i32 @check_msg_with_certs(ptr noundef %0, ptr noundef %17, ptr noundef nonnull @.str.49, ptr noundef %18, ptr noundef null, ptr noundef %1, i32 noundef %2)
  %.not33 = icmp eq i32 %19, 0
  br i1 %.not33, label %20, label %33

20:                                               ; preds = %15
  %21 = getelementptr inbounds nuw i8, ptr %0, i64 168
  %22 = load ptr, ptr %21, align 8, !tbaa !41
  %23 = icmp eq ptr %22, null
  br i1 %23, label %24, label %27

24:                                               ; preds = %20
  %.not35 = icmp eq i32 %2, 0
  %25 = select i1 %.not35, ptr @.str.51, ptr @.str.50
  %26 = tail call i32 (i32, ptr, ptr, ptr, i32, ptr, ptr, ...) @ossl_cmp_print_log(i32 noundef 4, ptr noundef nonnull %0, ptr noundef nonnull @__func__.check_msg_all_certs, ptr noundef nonnull @.str, i32 noundef 444, ptr noundef nonnull @.str.7, ptr noundef nonnull @.str.2, ptr noundef nonnull %25) #3
  br label %33

27:                                               ; preds = %20
  %28 = tail call ptr @X509_STORE_get1_all_certs(ptr noundef nonnull %22) #3
  %.not34 = icmp eq i32 %2, 0
  %29 = select i1 %.not34, ptr @.str.53, ptr @.str.52
  %30 = load ptr, ptr %12, align 8, !tbaa !61
  %31 = load ptr, ptr %16, align 8, !tbaa !27
  %32 = tail call fastcc i32 @check_msg_with_certs(ptr noundef %0, ptr noundef %28, ptr noundef nonnull %29, ptr noundef %30, ptr noundef %31, ptr noundef %1, i32 noundef %2)
  tail call void @OSSL_STACK_OF_X509_free(ptr noundef %28) #3
  br label %33

33:                                               ; preds = %24, %27, %15, %.split28, %11
  %.0 = phi i32 [ 0, %11 ], [ 1, %.split28 ], [ 1, %15 ], [ 0, %24 ], [ %32, %27 ]
  ret i32 %.0
}